target datalayout = "e-m:e-p270:32:32-p271:32:32-p272:64:64-i64:64-i128:128-f80:128-n8:16:32:64-S128"
target triple = "x86_64-pc-linux-gnu"

@H5C_init_g = external global i8, align 1
@H5_libterm_g = external global i8, align 1
@.str.1 = private unnamed_addr constant [102 x i8] c"generated/home/dtcxzyw/WorkSpace/Projects/compilers/llvm-opt-benchmark/bench/hdf5/hdf5/src/H5Cepoch.c\00", align 1
@H5E_CACHE_g = external global i64, align 8
@H5E_SYSTEM_g = external global i64, align 8
@.str.2 = private unnamed_addr constant [24 x i8] c"called unreachable fcn.\00", align 1
@__func__.H5C__epoch_marker_free_icr = private unnamed_addr constant [27 x i8] c"H5C__epoch_marker_free_icr\00", align 1

; Function Attrs: nounwind uwtable
define internal i32 @H5C__epoch_marker_free_icr(ptr noundef %0) #0 {
  %2 = alloca ptr, align 8
  store ptr %0, ptr %2, align 8, !tbaa !3
  %3 = load i8, ptr @H5C_init_g, align 1, !tbaa !9, !range !11, !noundef !12
  %4 = trunc i8 %3 to i1
  br i1 %4, label %9, label %5

5:                                                ; preds = %1
  %6 = load i8, ptr @H5_libterm_g, align 1, !tbaa !9, !range !11, !noundef !12
  %7 = trunc i8 %6 to i1
  %8 = xor i1 %7, true
  br label %9

9:                                                ; preds = %5, %1
  %10 = phi i1 [ true, %1 ], [ %8, %5 ]
  %11 = xor i1 %10, true
  %12 = xor i1 %11, true
  %13 = zext i1 %12 to i32
  %14 = sext i32 %13 to i64
  %15 = call i64 @llvm.expect.i64(i64 %14, i64 1)
  %16 = icmp ne i64 %15, 0
  br i1 %16, label %17, label %23

17:                                               ; preds = %9
  br label %18

18:                                               ; preds = %17
  %19 = load i64, ptr @H5E_CACHE_g, align 8, !tbaa !13
  %20 = load i64, ptr @H5E_SYSTEM_g, align 8, !tbaa !13
  %21 = call i32 (ptr, ptr, i32, i64, i64, ptr, ...) @H5E_printf_stack(ptr noundef @.str.1, ptr noundef @__func__.H5C__epoch_marker_free_icr, i32 noundef 202, i64 noundef %19, i64 noundef %20, ptr noundef @.str.2)
  br label %22

22:                                               ; preds = %18
  br label %23

23:                                               ; preds = %22, %9
  ret i32 -1
}