; Function Attrs: nounwind uwtable
define internal noundef i32 @H5C__epoch_marker_free_icr(ptr readnone captures(none) %0) #0 {
  %2 = load i8, ptr @H5C_init_g, align 1, !tbaa !3, !range !7, !noundef !8
  %3 = trunc nuw i8 %2 to i1
  %4 = load i8, ptr @H5_libterm_g, align 1, !range !7
  %5 = trunc nuw i8 %4 to i1
  %6 = xor i1 %5, true
  %7 = select i1 %3, i1 true, i1 %6
  br i1 %7, label %8, label %12, !prof !9

8:                                                ; preds = %1
  %9 = load i64, ptr @H5E_CACHE_g, align 8, !tbaa !10
  %10 = load i64, ptr @H5E_SYSTEM_g, align 8, !tbaa !10
  %11 = tail call i32 (ptr, ptr, i32, i64, i64, ptr, ...) @H5E_printf_stack(ptr noundef nonnull @.str.1, ptr noundef nonnull @__func__.H5C__epoch_marker_free_icr, i32 noundef 202, i64 noundef %9, i64 noundef %10, ptr noundef nonnull @.str.2) #2
  br label %12

12:                                               ; preds = %8, %1
  ret i32 -1
}